target datalayout = "e-m:e-p270:32:32-p271:32:32-p272:64:64-i64:64-i128:128-f80:128-n8:16:32:64-S128"
target triple = "x86_64-pc-linux-gnu"

%struct._object = type { %union.anon, ptr }
%union.anon = type { i64 }
%struct.PyVarObject = type { %struct._object, i64 }
%struct._typeobject = type { %struct.PyVarObject, ptr, i64, i64, ptr, i64, ptr, ptr, ptr, ptr, ptr, ptr, ptr, ptr, ptr, ptr, ptr, ptr, ptr, i64, ptr, ptr, ptr, ptr, i64, ptr, ptr, ptr, ptr, ptr, ptr, ptr, ptr, ptr, i64, ptr, ptr, ptr, ptr, ptr, ptr, ptr, ptr, ptr, ptr, ptr, i32, ptr, ptr, i8, i16 }
%struct.anon.5 = type { i32, i32 }

@_Py_NoneStruct = external global %struct._object, align 8
@AsyncGenHooksType = internal global %struct._typeobject zeroinitializer, align 8

; Function Attrs: alwaysinline nounwind uwtable
define internal void @Py_INCREF(ptr noundef %0) #5 {
  %2 = alloca ptr, align 8
  %3 = alloca i32, align 4
  %4 = alloca i32, align 4
  store ptr %0, ptr %2, align 8, !tbaa !9
  call void @llvm.lifetime.start.p0(i64 4, ptr %3) #12
  %5 = load ptr, ptr %2, align 8, !tbaa !9
  %6 = getelementptr inbounds nuw %struct._object, ptr %5, i32 0, i32 0
  %7 = getelementptr inbounds nuw %struct.anon.5, ptr %6, i32 0, i32 0
  %8 = load i32, ptr %7, align 8, !tbaa !102
  store i32 %8, ptr %3, align 4, !tbaa !97
  %9 = load i32, ptr %3, align 4, !tbaa !97
  %10 = icmp slt i32 %9, 0
  br i1 %10, label %11, label %12

11:                                               ; preds = %1
  store i32 1, ptr %4, align 4
  br label %18

12:                                               ; preds = %1
  %13 = load i32, ptr %3, align 4, !tbaa !97
  %14 = add i32 %13, 1
  %15 = load ptr, ptr %2, align 8, !tbaa !9
  %16 = getelementptr inbounds nuw %struct._object, ptr %15, i32 0, i32 0
  %17 = getelementptr inbounds nuw %struct.anon.5, ptr %16, i32 0, i32 0
  store i32 %14, ptr %17, align 8, !tbaa !102
  store i32 0, ptr %4, align 4
  br label %18

18:                                               ; preds = %12, %11
  call void @llvm.lifetime.end.p0(i64 4, ptr %3) #12
  %19 = load i32, ptr %4, align 4
  switch i32 %19, label %21 [
    i32 0, label %20
    i32 1, label %20
  ]

20:                                               ; preds = %18, %18
  ret void

21:                                               ; preds = %18
  unreachable
}

; Function Attrs: inlinehint nounwind uwtable
define internal ptr @_Py_NewRef(ptr noundef %0) #3 {
  %2 = alloca ptr, align 8
  store ptr %0, ptr %2, align 8, !tbaa !9
  %3 = load ptr, ptr %2, align 8, !tbaa !9
  call void @Py_INCREF(ptr noundef %3)
  %4 = load ptr, ptr %2, align 8, !tbaa !9
  ret ptr %4
}

; Function Attrs: nounwind uwtable
define internal ptr @sys_get_asyncgen_hooks_impl(ptr noundef %0) #0 {
  %2 = alloca ptr, align 8
  %3 = alloca ptr, align 8
  %4 = alloca ptr, align 8
  %5 = alloca ptr, align 8
  %6 = alloca ptr, align 8
  %7 = alloca i32, align 4
  store ptr %0, ptr %3, align 8, !tbaa !9
  call void @llvm.lifetime.start.p0(i64 8, ptr %4) #12
  call void @llvm.lifetime.start.p0(i64 8, ptr %5) #12
  %8 = call ptr @_PyEval_GetAsyncGenFirstiter()
  store ptr %8, ptr %5, align 8, !tbaa !9
  call void @llvm.lifetime.start.p0(i64 8, ptr %6) #12
  %9 = call ptr @_PyEval_GetAsyncGenFinalizer()
  store ptr %9, ptr %6, align 8, !tbaa !9
  %10 = call ptr @PyStructSequence_New(ptr noundef @AsyncGenHooksType)
  store ptr %10, ptr %4, align 8, !tbaa !9
  %11 = load ptr, ptr %4, align 8, !tbaa !9
  %12 = icmp eq ptr %11, null
  br i1 %12, label %13, label %14

13:                                               ; preds = %1
  store ptr null, ptr %2, align 8
  store i32 1, ptr %7, align 4
  br label %30

14:                                               ; preds = %1
  %15 = load ptr, ptr %5, align 8, !tbaa !9
  %16 = icmp eq ptr %15, null
  br i1 %16, label %17, label %18

17:                                               ; preds = %14
  store ptr @_Py_NoneStruct, ptr %5, align 8, !tbaa !9
  br label %18

18:                                               ; preds = %17, %14
  %19 = load ptr, ptr %6, align 8, !tbaa !9
  %20 = icmp eq ptr %19, null
  br i1 %20, label %21, label %22

21:                                               ; preds = %18
  store ptr @_Py_NoneStruct, ptr %6, align 8, !tbaa !9
  br label %22

22:                                               ; preds = %21, %18
  %23 = load ptr, ptr %4, align 8, !tbaa !9
  %24 = load ptr, ptr %5, align 8, !tbaa !9
  %25 = call ptr @_Py_NewRef(ptr noundef %24)
  call void @PyStructSequence_SetItem(ptr noundef %23, i64 noundef 0, ptr noundef %25)
  %26 = load ptr, ptr %4, align 8, !tbaa !9
  %27 = load ptr, ptr %6, align 8, !tbaa !9
  %28 = call ptr @_Py_NewRef(ptr noundef %27)
  call void @PyStructSequence_SetItem(ptr noundef %26, i64 noundef 1, ptr noundef %28)
  %29 = load ptr, ptr %4, align 8, !tbaa !9
  store ptr %29, ptr %2, align 8
  store i32 1, ptr %7, align 4
  br label %30

30:                                               ; preds = %22, %13
  call void @llvm.lifetime.end.p0(i64 8, ptr %6) #12
  call void @llvm.lifetime.end.p0(i64 8, ptr %5) #12
  call void @llvm.lifetime.end.p0(i64 8, ptr %4) #12
  %31 = load ptr, ptr %2, align 8
  ret ptr %31
}

; Function Attrs: nounwind uwtable
define internal ptr @sys_get_asyncgen_hooks(ptr noundef %0, ptr noundef %1) #0 {
  %3 = alloca ptr, align 8
  %4 = alloca ptr, align 8
  store ptr %0, ptr %3, align 8, !tbaa !9
  store ptr %1, ptr %4, align 8, !tbaa !9
  %5 = load ptr, ptr %3, align 8, !tbaa !9
  %6 = call ptr @sys_get_asyncgen_hooks_impl(ptr noundef %5)
  ret ptr %6
}