; Function Attrs: nounwind uwtable
define internal ptr @sys_get_asyncgen_hooks(ptr readnone captures(none) %0, ptr readnone captures(none) %1) #0 {
  %3 = tail call ptr @_PyEval_GetAsyncGenFirstiter() #15
  %4 = tail call ptr @_PyEval_GetAsyncGenFinalizer() #15
  %5 = tail call ptr @PyStructSequence_New(ptr noundef nonnull @AsyncGenHooksType) #15
  %6 = icmp eq ptr %5, null
  br i1 %6, label %sys_get_asyncgen_hooks_impl.exit, label %7

7:                                                ; preds = %2
  %8 = icmp eq ptr %3, null
  %spec.store.select.i = select i1 %8, ptr @_Py_NoneStruct, ptr %3
  %9 = icmp eq ptr %4, null
  %spec.store.select1.i = select i1 %9, ptr @_Py_NoneStruct, ptr %4
  %10 = load i32, ptr %spec.store.select.i, align 8, !tbaa !94
  %11 = icmp slt i32 %10, 0
  br i1 %11, label %_Py_NewRef.exit.i, label %12

12:                                               ; preds = %7
  %13 = add nuw i32 %10, 1
  store i32 %13, ptr %spec.store.select.i, align 8, !tbaa !94
  br label %_Py_NewRef.exit.i

_Py_NewRef.exit.i:                                ; preds = %12, %7
  tail call void @PyStructSequence_SetItem(ptr noundef nonnull %5, i64 noundef 0, ptr noundef nonnull %spec.store.select.i) #15
  %14 = load i32, ptr %spec.store.select1.i, align 8, !tbaa !94
  %15 = icmp slt i32 %14, 0
  br i1 %15, label %_Py_NewRef.exit11.i, label %16

16:                                               ; preds = %_Py_NewRef.exit.i
  %17 = add nuw i32 %14, 1
  store i32 %17, ptr %spec.store.select1.i, align 8, !tbaa !94
  br label %_Py_NewRef.exit11.i

_Py_NewRef.exit11.i:                              ; preds = %16, %_Py_NewRef.exit.i
  tail call void @PyStructSequence_SetItem(ptr noundef nonnull %5, i64 noundef 1, ptr noundef nonnull %spec.store.select1.i) #15
  br label %sys_get_asyncgen_hooks_impl.exit

sys_get_asyncgen_hooks_impl.exit:                 ; preds = %2, %_Py_NewRef.exit11.i
  ret ptr %5
}